; Function Attrs: nounwind uwtable
define ptr @ossl_d2i_X25519_PUBKEY(ptr noundef captures(address_is_null) %0, ptr noundef captures(none) %1, i64 noundef %2) local_unnamed_addr #0 {
  %4 = alloca ptr, align 8
  call void @llvm.lifetime.start.p0(i64 8, ptr nonnull %4) #9
  %5 = load ptr, ptr %1, align 8, !tbaa !46
  store ptr %5, ptr %4, align 8, !tbaa !46
  %6 = call fastcc ptr @d2i_PUBKEY_int(ptr noundef null, ptr noundef nonnull %4, i64 noundef %2, ptr noundef null, ptr noundef null, i32 noundef 1)
  %7 = icmp eq ptr %6, null
  br i1 %7, label %18, label %8

8:                                                ; preds = %3
  %9 = tail call i32 @EVP_PKEY_get_id(ptr noundef nonnull %6) #9
  %10 = icmp eq i32 %9, 1034
  br i1 %10, label %11, label %.thread

.thread:                                          ; preds = %8
  tail call void @EVP_PKEY_free(ptr noundef nonnull %6) #9
  br label %18

11:                                               ; preds = %8
  %12 = tail call ptr @ossl_evp_pkey_get1_X25519(ptr noundef nonnull %6) #9
  tail call void @EVP_PKEY_free(ptr noundef nonnull %6) #9
  %13 = icmp eq ptr %12, null
  br i1 %13, label %18, label %14

14:                                               ; preds = %11
  %15 = load ptr, ptr %4, align 8, !tbaa !46
  store ptr %15, ptr %1, align 8, !tbaa !46
  %.not = icmp eq ptr %0, null
  br i1 %.not, label %18, label %16

16:                                               ; preds = %14
  %17 = load ptr, ptr %0, align 8, !tbaa !64
  tail call void @ossl_ecx_key_free(ptr noundef %17) #9
  store ptr %12, ptr %0, align 8, !tbaa !64
  br label %18

18:                                               ; preds = %.thread, %14, %16, %11, %3
  %.013 = phi ptr [ null, %3 ], [ null, %11 ], [ %12, %16 ], [ %12, %14 ], [ null, %.thread ]
  call void @llvm.lifetime.end.p0(i64 8, ptr nonnull %4) #9
  ret ptr %.013
}